target datalayout = "e-m:e-p270:32:32-p271:32:32-p272:64:64-i64:64-i128:128-f80:128-n8:16:32:64-S128"
target triple = "x86_64-pc-linux-gnu"

%struct.http2_stream_data = type { ptr, ptr, ptr, i32, i32 }
%struct.nghttp2_nv = type { ptr, ptr, i64, i64, i8 }
%struct.nghttp2_data_provider2 = type { %union.nghttp2_data_source, ptr }
%union.nghttp2_data_source = type { ptr }

@.str.10 = private unnamed_addr constant [16 x i8] c"Fatal error: %s\00", align 1
@__const.error_reply.hdrs = private unnamed_addr constant [1 x { ptr, ptr, i64, i64, i8, [7 x i8] }] [{ ptr, ptr, i64, i64, i8, [7 x i8] } { ptr @.str.19, ptr @.str.22, i64 7, i64 3, i8 0, [7 x i8] zeroinitializer }], align 16
@.str.23 = private unnamed_addr constant [22 x i8] c"Could not create pipe\00", align 1
@ERROR_HTML = internal constant [80 x i8] c"<html><head><title>404</title></head><body><h1>404 Not Found</h1></body></html>\00", align 16

; Function Attrs: nounwind uwtable
define internal i32 @send_response(ptr noundef %0, i32 noundef %1, ptr noundef %2, i64 noundef %3, i32 noundef %4) #0 {
  %6 = alloca i32, align 4
  %7 = alloca ptr, align 8
  %8 = alloca i32, align 4
  %9 = alloca ptr, align 8
  %10 = alloca i64, align 8
  %11 = alloca i32, align 4
  %12 = alloca i32, align 4
  %13 = alloca %struct.nghttp2_data_provider2, align 8
  %14 = alloca i32, align 4
  store ptr %0, ptr %7, align 8, !tbaa !70
  store i32 %1, ptr %8, align 4, !tbaa !4
  store ptr %2, ptr %9, align 8, !tbaa !42
  store i64 %3, ptr %10, align 8, !tbaa !60
  store i32 %4, ptr %11, align 4, !tbaa !4
  call void @llvm.lifetime.start.p0(i64 4, ptr %12) #11
  call void @llvm.lifetime.start.p0(i64 16, ptr %13) #11
  %15 = load i32, ptr %11, align 4, !tbaa !4
  %16 = getelementptr inbounds nuw %struct.nghttp2_data_provider2, ptr %13, i32 0, i32 0
  store i32 %15, ptr %16, align 8, !tbaa !14
  %17 = getelementptr inbounds nuw %struct.nghttp2_data_provider2, ptr %13, i32 0, i32 1
  store ptr @file_read_callback, ptr %17, align 8, !tbaa !74
  %18 = load ptr, ptr %7, align 8, !tbaa !70
  %19 = load i32, ptr %8, align 4, !tbaa !4
  %20 = load ptr, ptr %9, align 8, !tbaa !42
  %21 = load i64, ptr %10, align 8, !tbaa !60
  %22 = call i32 @nghttp2_submit_response2(ptr noundef %18, i32 noundef %19, ptr noundef %20, i64 noundef %21, ptr noundef %13)
  store i32 %22, ptr %12, align 4, !tbaa !4
  %23 = load i32, ptr %12, align 4, !tbaa !4
  %24 = icmp ne i32 %23, 0
  br i1 %24, label %25, label %28

25:                                               ; preds = %5
  %26 = load i32, ptr %12, align 4, !tbaa !4
  %27 = call ptr @nghttp2_strerror(i32 noundef %26)
  call void (ptr, ...) @warnx(ptr noundef @.str.10, ptr noundef %27)
  store i32 -1, ptr %6, align 4
  store i32 1, ptr %14, align 4
  br label %29

28:                                               ; preds = %5
  store i32 0, ptr %6, align 4
  store i32 1, ptr %14, align 4
  br label %29

29:                                               ; preds = %28, %25
  call void @llvm.lifetime.end.p0(i64 16, ptr %13) #11
  call void @llvm.lifetime.end.p0(i64 4, ptr %12) #11
  %30 = load i32, ptr %6, align 4
  ret i32 %30
}

; Function Attrs: nounwind uwtable
define internal i32 @error_reply(ptr noundef %0, ptr noundef %1) #0 {
  %3 = alloca i32, align 4
  %4 = alloca ptr, align 8
  %5 = alloca ptr, align 8
  %6 = alloca i32, align 4
  %7 = alloca i64, align 8
  %8 = alloca [2 x i32], align 4
  %9 = alloca [1 x %struct.nghttp2_nv], align 16
  %10 = alloca i32, align 4
  store ptr %0, ptr %4, align 8, !tbaa !70
  store ptr %1, ptr %5, align 8, !tbaa !63
  call void @llvm.lifetime.start.p0(i64 4, ptr %6) #11
  call void @llvm.lifetime.start.p0(i64 8, ptr %7) #11
  call void @llvm.lifetime.start.p0(i64 8, ptr %8) #11
  call void @llvm.lifetime.start.p0(i64 40, ptr %9) #11
  call void @llvm.memcpy.p0.p0.i64(ptr align 16 %9, ptr align 16 @__const.error_reply.hdrs, i64 40, i1 false)
  %11 = getelementptr inbounds [2 x i32], ptr %8, i64 0, i64 0
  %12 = call i32 @pipe(ptr noundef %11) #11
  store i32 %12, ptr %6, align 4, !tbaa !4
  %13 = load i32, ptr %6, align 4, !tbaa !4
  %14 = icmp ne i32 %13, 0
  br i1 %14, label %15, label %27

15:                                               ; preds = %2
  call void (ptr, ...) @warn(ptr noundef @.str.23)
  %16 = load ptr, ptr %4, align 8, !tbaa !70
  %17 = load ptr, ptr %5, align 8, !tbaa !63
  %18 = getelementptr inbounds nuw %struct.http2_stream_data, ptr %17, i32 0, i32 3
  %19 = load i32, ptr %18, align 8, !tbaa !73
  %20 = call i32 @nghttp2_submit_rst_stream(ptr noundef %16, i8 noundef zeroext 0, i32 noundef %19, i32 noundef 2)
  store i32 %20, ptr %6, align 4, !tbaa !4
  %21 = load i32, ptr %6, align 4, !tbaa !4
  %22 = icmp ne i32 %21, 0
  br i1 %22, label %23, label %26

23:                                               ; preds = %15
  %24 = load i32, ptr %6, align 4, !tbaa !4
  %25 = call ptr @nghttp2_strerror(i32 noundef %24)
  call void (ptr, ...) @warnx(ptr noundef @.str.10, ptr noundef %25)
  store i32 -1, ptr %3, align 4
  store i32 1, ptr %10, align 4
  br label %59

26:                                               ; preds = %15
  store i32 0, ptr %3, align 4
  store i32 1, ptr %10, align 4
  br label %59

27:                                               ; preds = %2
  %28 = getelementptr inbounds [2 x i32], ptr %8, i64 0, i64 1
  %29 = load i32, ptr %28, align 4, !tbaa !4
  %30 = call i64 @write(i32 noundef %29, ptr noundef @ERROR_HTML, i64 noundef 79)
  store i64 %30, ptr %7, align 8, !tbaa !60
  %31 = getelementptr inbounds [2 x i32], ptr %8, i64 0, i64 1
  %32 = load i32, ptr %31, align 4, !tbaa !4
  %33 = call i32 @close(i32 noundef %32)
  %34 = load i64, ptr %7, align 8, !tbaa !60
  %35 = icmp ne i64 %34, 79
  br i1 %35, label %36, label %40

36:                                               ; preds = %27
  %37 = getelementptr inbounds [2 x i32], ptr %8, i64 0, i64 0
  %38 = load i32, ptr %37, align 4, !tbaa !4
  %39 = call i32 @close(i32 noundef %38)
  store i32 -1, ptr %3, align 4
  store i32 1, ptr %10, align 4
  br label %59

40:                                               ; preds = %27
  %41 = getelementptr inbounds [2 x i32], ptr %8, i64 0, i64 0
  %42 = load i32, ptr %41, align 4, !tbaa !4
  %43 = load ptr, ptr %5, align 8, !tbaa !63
  %44 = getelementptr inbounds nuw %struct.http2_stream_data, ptr %43, i32 0, i32 4
  store i32 %42, ptr %44, align 4, !tbaa !66
  %45 = load ptr, ptr %4, align 8, !tbaa !70
  %46 = load ptr, ptr %5, align 8, !tbaa !63
  %47 = getelementptr inbounds nuw %struct.http2_stream_data, ptr %46, i32 0, i32 3
  %48 = load i32, ptr %47, align 8, !tbaa !73
  %49 = getelementptr inbounds [1 x %struct.nghttp2_nv], ptr %9, i64 0, i64 0
  %50 = getelementptr inbounds [2 x i32], ptr %8, i64 0, i64 0
  %51 = load i32, ptr %50, align 4, !tbaa !4
  %52 = call i32 @send_response(ptr noundef %45, i32 noundef %48, ptr noundef %49, i64 noundef 1, i32 noundef %51)
  %53 = icmp ne i32 %52, 0
  br i1 %53, label %54, label %58

54:                                               ; preds = %40
  %55 = getelementptr inbounds [2 x i32], ptr %8, i64 0, i64 0
  %56 = load i32, ptr %55, align 4, !tbaa !4
  %57 = call i32 @close(i32 noundef %56)
  store i32 -1, ptr %3, align 4
  store i32 1, ptr %10, align 4
  br label %59

58:                                               ; preds = %40
  store i32 0, ptr %3, align 4
  store i32 1, ptr %10, align 4
  br label %59

59:                                               ; preds = %58, %54, %36, %26, %23
  call void @llvm.lifetime.end.p0(i64 40, ptr %9) #11
  call void @llvm.lifetime.end.p0(i64 8, ptr %8) #11
  call void @llvm.lifetime.end.p0(i64 8, ptr %7) #11
  call void @llvm.lifetime.end.p0(i64 4, ptr %6) #11
  %60 = load i32, ptr %3, align 4
  ret i32 %60
}