; Function Attrs: nounwind uwtable
define internal fastcc range(i32 -1, 1) i32 @error_reply(ptr noundef %0, ptr noundef nonnull captures(none) %1) unnamed_addr #0 {
  %3 = alloca %struct.nghttp2_data_provider2, align 8
  %4 = alloca [2 x i32], align 4
  %5 = alloca [1 x %struct.nghttp2_nv], align 16
  call void @llvm.lifetime.start.p0(i64 8, ptr nonnull %4) #21
  call void @llvm.lifetime.start.p0(i64 40, ptr nonnull %5) #21
  call void @llvm.memcpy.p0.p0.i64(ptr noundef nonnull align 16 dereferenceable(40) %5, ptr noundef nonnull align 16 dereferenceable(40) @__const.error_reply.hdrs, i64 40, i1 false)
  %6 = call i32 @pipe(ptr noundef nonnull %4) #21
  %.not = icmp eq i32 %6, 0
  br i1 %.not, label %13, label %7

7:                                                ; preds = %2
  call void (ptr, ...) @warn(ptr noundef nonnull @.str.23) #21
  %8 = getelementptr inbounds nuw i8, ptr %1, i64 24
  %9 = load i32, ptr %8, align 8, !tbaa !47
  %10 = call i32 @nghttp2_submit_rst_stream(ptr noundef %0, i8 noundef zeroext 0, i32 noundef %9, i32 noundef 2) #21
  %.not12 = icmp eq i32 %10, 0
  br i1 %.not12, label %32, label %11

11:                                               ; preds = %7
  %12 = call ptr @nghttp2_strerror(i32 noundef %10) #21
  call void (ptr, ...) @warnx(ptr noundef nonnull @.str.10, ptr noundef %12) #21
  br label %32

13:                                               ; preds = %2
  %14 = getelementptr inbounds nuw i8, ptr %4, i64 4
  %15 = load i32, ptr %14, align 4, !tbaa !28
  %16 = call i64 @write(i32 noundef %15, ptr noundef nonnull @ERROR_HTML, i64 noundef 79) #21
  %17 = load i32, ptr %14, align 4, !tbaa !28
  %18 = call i32 @close(i32 noundef %17) #21
  %.not10 = icmp eq i64 %16, 79
  %19 = load i32, ptr %4, align 4, !tbaa !28
  br i1 %.not10, label %22, label %20

20:                                               ; preds = %13
  %21 = call i32 @close(i32 noundef %19) #21
  br label %32

22:                                               ; preds = %13
  %23 = getelementptr inbounds nuw i8, ptr %1, i64 28
  store i32 %19, ptr %23, align 4, !tbaa !43
  %24 = getelementptr inbounds nuw i8, ptr %1, i64 24
  %25 = load i32, ptr %24, align 8, !tbaa !47
  call void @llvm.lifetime.start.p0(i64 16, ptr nonnull %3) #21
  store i32 %19, ptr %3, align 8, !tbaa !9
  %26 = getelementptr inbounds nuw i8, ptr %3, i64 8
  store ptr @file_read_callback, ptr %26, align 8, !tbaa !48
  %27 = call i32 @nghttp2_submit_response2(ptr noundef %0, i32 noundef %25, ptr noundef nonnull %5, i64 noundef 1, ptr noundef nonnull %3) #21
  %.not.i = icmp eq i32 %27, 0
  br i1 %.not.i, label %send_response.exit.thread, label %28

send_response.exit.thread:                        ; preds = %22
  call void @llvm.lifetime.end.p0(i64 16, ptr nonnull %3) #21
  br label %32

28:                                               ; preds = %22
  %29 = call ptr @nghttp2_strerror(i32 noundef %27) #21
  call void (ptr, ...) @warnx(ptr noundef nonnull @.str.10, ptr noundef %29) #21
  call void @llvm.lifetime.end.p0(i64 16, ptr nonnull %3) #21
  %30 = load i32, ptr %4, align 4, !tbaa !28
  %31 = call i32 @close(i32 noundef %30) #21
  br label %32

32:                                               ; preds = %send_response.exit.thread, %7, %28, %20, %11
  %.0 = phi i32 [ -1, %11 ], [ -1, %20 ], [ -1, %28 ], [ 0, %7 ], [ 0, %send_response.exit.thread ]
  call void @llvm.lifetime.end.p0(i64 40, ptr nonnull %5) #21
  call void @llvm.lifetime.end.p0(i64 8, ptr nonnull %4) #21
  ret i32 %.0
}